; Function Attrs: mustprogress uwtable
define noundef zeroext i1 @_ZN32pxrInternal_v0_24__pxrReserved__16TfDoubleToStringEdPcib(double noundef %0, ptr noundef %1, i32 noundef %2, i1 noundef zeroext %3) local_unnamed_addr #0 personality ptr @__gxx_personality_v0 {
  %5 = alloca %"class.pxrInternal_v0_24__pxrReserved__::pxr_double_conversion::DoubleToStringConverter", align 8
  %6 = alloca %"class.pxrInternal_v0_24__pxrReserved__::pxr_double_conversion::StringBuilder", align 8
  %7 = icmp slt i32 %2, 25
  br i1 %7, label %_ZN32pxrInternal_v0_24__pxrReserved__21pxr_double_conversion13StringBuilderD2Ev.exit, label %8

8:                                                ; preds = %4
  %spec.store.select = select i1 %3, i32 6, i32 0
  store i32 %spec.store.select, ptr %5, align 8
  %9 = getelementptr inbounds nuw i8, ptr %5, i64 8
  store ptr @.str.15, ptr %9, align 8
  %10 = getelementptr inbounds nuw i8, ptr %5, i64 16
  store ptr @.str.16, ptr %10, align 8
  %11 = getelementptr inbounds nuw i8, ptr %5, i64 24
  store i8 101, ptr %11, align 8
  %12 = getelementptr inbounds nuw i8, ptr %5, i64 28
  store i32 -6, ptr %12, align 4
  %13 = getelementptr inbounds nuw i8, ptr %5, i64 32
  store i32 15, ptr %13, align 8
  %14 = getelementptr inbounds nuw i8, ptr %5, i64 36
  store i32 0, ptr %14, align 4
  %15 = getelementptr inbounds nuw i8, ptr %5, i64 40
  store i32 0, ptr %15, align 8
  %16 = getelementptr inbounds nuw i8, ptr %5, i64 44
  store i32 0, ptr %16, align 4
  store ptr %1, ptr %6, align 8
  %17 = getelementptr inbounds nuw i8, ptr %6, i64 8
  store i32 %2, ptr %17, align 8
  %18 = getelementptr inbounds nuw i8, ptr %6, i64 16
  store i32 0, ptr %18, align 8
  %19 = invoke noundef zeroext i1 @_ZNK32pxrInternal_v0_24__pxrReserved__21pxr_double_conversion23DoubleToStringConverter20ToShortestIeeeNumberEdPNS0_13StringBuilderENS1_8DtoaModeE(ptr noundef nonnull align 8 dereferenceable(48) %5, double noundef %0, ptr noundef nonnull %6, i32 noundef 0)
          to label %_ZNK32pxrInternal_v0_24__pxrReserved__21pxr_double_conversion23DoubleToStringConverter10ToShortestEdPNS0_13StringBuilderE.exit unwind label %26

_ZNK32pxrInternal_v0_24__pxrReserved__21pxr_double_conversion23DoubleToStringConverter10ToShortestEdPNS0_13StringBuilderE.exit: ; preds = %8
  %20 = load i32, ptr %18, align 8
  %21 = icmp slt i32 %20, 0
  br i1 %21, label %_ZN32pxrInternal_v0_24__pxrReserved__21pxr_double_conversion13StringBuilderD2Ev.exit, label %22

22:                                               ; preds = %_ZNK32pxrInternal_v0_24__pxrReserved__21pxr_double_conversion23DoubleToStringConverter10ToShortestEdPNS0_13StringBuilderE.exit
  %23 = load ptr, ptr %6, align 8
  %24 = zext nneg i32 %20 to i64
  %25 = getelementptr inbounds i8, ptr %23, i64 %24
  store i8 0, ptr %25, align 1
  br label %_ZN32pxrInternal_v0_24__pxrReserved__21pxr_double_conversion13StringBuilderD2Ev.exit

26:                                               ; preds = %8
  %27 = landingpad { ptr, i32 }
          cleanup
  %28 = load i32, ptr %18, align 8
  %29 = icmp slt i32 %28, 0
  br i1 %29, label %_ZN32pxrInternal_v0_24__pxrReserved__21pxr_double_conversion13StringBuilderD2Ev.exit9, label %30

30:                                               ; preds = %26
  %31 = load ptr, ptr %6, align 8
  %32 = zext nneg i32 %28 to i64
  %33 = getelementptr inbounds i8, ptr %31, i64 %32
  store i8 0, ptr %33, align 1
  br label %_ZN32pxrInternal_v0_24__pxrReserved__21pxr_double_conversion13StringBuilderD2Ev.exit9

_ZN32pxrInternal_v0_24__pxrReserved__21pxr_double_conversion13StringBuilderD2Ev.exit9: ; preds = %26, %30
  resume { ptr, i32 } %27

_ZN32pxrInternal_v0_24__pxrReserved__21pxr_double_conversion13StringBuilderD2Ev.exit: ; preds = %22, %_ZNK32pxrInternal_v0_24__pxrReserved__21pxr_double_conversion23DoubleToStringConverter10ToShortestEdPNS0_13StringBuilderE.exit, %4
  %.0 = phi i1 [ false, %4 ], [ %19, %_ZNK32pxrInternal_v0_24__pxrReserved__21pxr_double_conversion23DoubleToStringConverter10ToShortestEdPNS0_13StringBuilderE.exit ], [ %19, %22 ]
  ret i1 %.0
}